target datalayout = "e-m:e-p270:32:32-p271:32:32-p272:64:64-i64:64-i128:128-f80:128-n8:16:32:64-S128"
target triple = "x86_64-pc-linux-gnu"

%struct.ident_t = type { i32, i32, i32, i32, ptr }
%"class.LightGBM::GradientDiscretizer" = type { ptr, i32, i32, i32, i32, i8, %"class.std::vector", %"class.std::vector", %"class.std::mersenne_twister_engine", %"class.std::uniform_int_distribution", %"class.std::vector.0", %"class.std::vector.0", double, double, double, double, double, double, i8, i32, %"class.std::vector.0", %"class.std::vector.0", %"class.std::vector.0", %"class.std::vector.0", %"class.std::vector", %"class.std::vector.5" }
%"class.std::mersenne_twister_engine" = type { [624 x i64], i64 }
%"class.std::uniform_int_distribution" = type { %"struct.std::uniform_int_distribution<>::param_type" }
%"struct.std::uniform_int_distribution<>::param_type" = type { i32, i32 }
%"class.std::vector.0" = type { %"struct.std::_Vector_base.1" }
%"struct.std::_Vector_base.1" = type { %"struct.std::_Vector_base<signed char, std::allocator<signed char>>::_Vector_impl" }
%"struct.std::_Vector_base<signed char, std::allocator<signed char>>::_Vector_impl" = type { %"struct.std::_Vector_base<signed char, std::allocator<signed char>>::_Vector_impl_data" }
%"struct.std::_Vector_base<signed char, std::allocator<signed char>>::_Vector_impl_data" = type { ptr, ptr, ptr }
%"class.std::vector" = type { %"struct.std::_Vector_base" }
%"struct.std::_Vector_base" = type { %"struct.std::_Vector_base<double, std::allocator<double>>::_Vector_impl" }
%"struct.std::_Vector_base<double, std::allocator<double>>::_Vector_impl" = type { %"struct.std::_Vector_base<double, std::allocator<double>>::_Vector_impl_data" }
%"struct.std::_Vector_base<double, std::allocator<double>>::_Vector_impl_data" = type { ptr, ptr, ptr }
%"class.std::vector.5" = type { %"struct.std::_Vector_base.6" }
%"struct.std::_Vector_base.6" = type { %"struct.std::_Vector_base<std::vector<int>, std::allocator<std::vector<int>>>::_Vector_impl" }
%"struct.std::_Vector_base<std::vector<int>, std::allocator<std::vector<int>>>::_Vector_impl" = type { %"struct.std::_Vector_base<std::vector<int>, std::allocator<std::vector<int>>>::_Vector_impl_data" }
%"struct.std::_Vector_base<std::vector<int>, std::allocator<std::vector<int>>>::_Vector_impl_data" = type { ptr, ptr, ptr }

@1 = private unnamed_addr constant %struct.ident_t { i32 0, i32 514, i32 0, i32 22, ptr @0 }, align 8

; Function Attrs: mustprogress nounwind uwtable
define linkonce_odr noundef nonnull align 8 dereferenceable(8) ptr @_ZNSt6vectorIdSaIdEEixEm(ptr noundef nonnull align 8 dereferenceable(24) %0, i64 noundef %1) #0 comdat align 2 {
  %3 = alloca ptr, align 8
  %4 = alloca i64, align 8
  store ptr %0, ptr %3, align 8
  store i64 %1, ptr %4, align 8
  %5 = load ptr, ptr %3, align 8
  %6 = getelementptr inbounds %"struct.std::_Vector_base", ptr %5, i32 0, i32 0
  %7 = getelementptr inbounds %"struct.std::_Vector_base<double, std::allocator<double>>::_Vector_impl_data", ptr %6, i32 0, i32 0
  %8 = load ptr, ptr %7, align 8
  %9 = load i64, ptr %4, align 8
  %10 = getelementptr inbounds double, ptr %8, i64 %9
  ret ptr %10
}

; Function Attrs: norecurse nounwind uwtable
define internal void @_ZN8LightGBM19GradientDiscretizer19DiscretizeGradientsEiPKfS2_.omp_outlined.3(ptr noalias noundef %0, ptr noalias noundef %1, ptr noundef nonnull align 4 dereferenceable(4) %2, ptr noundef nonnull align 8 dereferenceable(8) %3, ptr noundef nonnull align 4 dereferenceable(4) %4, ptr noundef nonnull align 8 dereferenceable(8) %5, ptr noundef %6, ptr noundef nonnull align 8 dereferenceable(8) %7) #7 {
  %9 = alloca ptr, align 8
  %10 = alloca ptr, align 8
  %11 = alloca ptr, align 8
  %12 = alloca ptr, align 8
  %13 = alloca ptr, align 8
  %14 = alloca ptr, align 8
  %15 = alloca ptr, align 8
  %16 = alloca ptr, align 8
  %17 = alloca i32, align 4
  %18 = alloca i32, align 4
  %19 = alloca i32, align 4
  %20 = alloca i32, align 4
  %21 = alloca i32, align 4
  %22 = alloca i32, align 4
  %23 = alloca i32, align 4
  %24 = alloca i32, align 4
  %25 = alloca i32, align 4
  %26 = alloca double, align 8
  %27 = alloca i32, align 4
  store ptr %0, ptr %9, align 8
  store ptr %1, ptr %10, align 8
  store ptr %2, ptr %11, align 8
  store ptr %3, ptr %12, align 8
  store ptr %4, ptr %13, align 8
  store ptr %5, ptr %14, align 8
  store ptr %6, ptr %15, align 8
  store ptr %7, ptr %16, align 8
  %28 = load ptr, ptr %11, align 8
  %29 = load ptr, ptr %12, align 8
  %30 = load ptr, ptr %13, align 8
  %31 = load ptr, ptr %14, align 8
  %32 = load ptr, ptr %15, align 8
  %33 = load ptr, ptr %16, align 8
  %34 = load i32, ptr %28, align 4
  store i32 %34, ptr %18, align 4
  %35 = load i32, ptr %18, align 4
  %36 = sub nsw i32 %35, 0
  %37 = sdiv i32 %36, 1
  %38 = sub nsw i32 %37, 1
  store i32 %38, ptr %19, align 4
  store i32 0, ptr %20, align 4
  %39 = load i32, ptr %18, align 4
  %40 = icmp slt i32 0, %39
  br i1 %40, label %41, label %135

41:                                               ; preds = %8
  store i32 0, ptr %21, align 4
  %42 = load i32, ptr %19, align 4
  store i32 %42, ptr %22, align 4
  store i32 1, ptr %23, align 4
  store i32 0, ptr %24, align 4
  %43 = load ptr, ptr %9, align 8
  %44 = load i32, ptr %43, align 4
  call void @__kmpc_for_static_init_4(ptr @1, i32 %44, i32 34, ptr %24, ptr %21, ptr %22, ptr %23, i32 1, i32 1)
  %45 = load i32, ptr %22, align 4
  %46 = load i32, ptr %19, align 4
  %47 = icmp sgt i32 %45, %46
  br i1 %47, label %48, label %50

48:                                               ; preds = %41
  %49 = load i32, ptr %19, align 4
  br label %52

50:                                               ; preds = %41
  %51 = load i32, ptr %22, align 4
  br label %52

52:                                               ; preds = %50, %48
  %53 = phi i32 [ %49, %48 ], [ %51, %50 ]
  store i32 %53, ptr %22, align 4
  %54 = load i32, ptr %21, align 4
  store i32 %54, ptr %17, align 4
  br label %55

55:                                               ; preds = %128, %52
  %56 = load i32, ptr %17, align 4
  %57 = load i32, ptr %22, align 4
  %58 = icmp sle i32 %56, %57
  br i1 %58, label %59, label %131

59:                                               ; preds = %55
  %60 = load i32, ptr %17, align 4
  %61 = mul nsw i32 %60, 1
  %62 = add nsw i32 0, %61
  store i32 %62, ptr %25, align 4
  %63 = load ptr, ptr %29, align 8
  %64 = load i32, ptr %25, align 4
  %65 = sext i32 %64 to i64
  %66 = getelementptr inbounds float, ptr %63, i64 %65
  %67 = load float, ptr %66, align 4
  %68 = fpext float %67 to double
  store double %68, ptr %26, align 8
  %69 = load i32, ptr %25, align 4
  %70 = load i32, ptr %30, align 4
  %71 = add nsw i32 %69, %70
  %72 = load i32, ptr %28, align 4
  %73 = srem i32 %71, %72
  store i32 %73, ptr %27, align 4
  %74 = load double, ptr %26, align 8
  %75 = fcmp oge double %74, 0.000000e+00
  br i1 %75, label %76, label %87

76:                                               ; preds = %59
  %77 = load double, ptr %26, align 8
  %78 = getelementptr inbounds %"class.LightGBM::GradientDiscretizer", ptr %32, i32 0, i32 16
  %79 = load double, ptr %78, align 8
  %80 = getelementptr inbounds %"class.LightGBM::GradientDiscretizer", ptr %32, i32 0, i32 6
  %81 = load i32, ptr %27, align 4
  %82 = sext i32 %81 to i64
  %83 = call noundef nonnull align 8 dereferenceable(8) ptr @_ZNSt6vectorIdSaIdEEixEm(ptr noundef nonnull align 8 dereferenceable(24) %80, i64 noundef %82) #5
  %84 = load double, ptr %83, align 8
  %85 = call double @llvm.fmuladd.f64(double %77, double %79, double %84)
  %86 = fptosi double %85 to i8
  br label %99

87:                                               ; preds = %59
  %88 = load double, ptr %26, align 8
  %89 = getelementptr inbounds %"class.LightGBM::GradientDiscretizer", ptr %32, i32 0, i32 16
  %90 = load double, ptr %89, align 8
  %91 = getelementptr inbounds %"class.LightGBM::GradientDiscretizer", ptr %32, i32 0, i32 6
  %92 = load i32, ptr %27, align 4
  %93 = sext i32 %92 to i64
  %94 = call noundef nonnull align 8 dereferenceable(8) ptr @_ZNSt6vectorIdSaIdEEixEm(ptr noundef nonnull align 8 dereferenceable(24) %91, i64 noundef %93) #5
  %95 = load double, ptr %94, align 8
  %96 = fneg double %95
  %97 = call double @llvm.fmuladd.f64(double %88, double %90, double %96)
  %98 = fptosi double %97 to i8
  br label %99

99:                                               ; preds = %87, %76
  %100 = phi i8 [ %86, %76 ], [ %98, %87 ]
  %101 = load ptr, ptr %31, align 8
  %102 = load i32, ptr %25, align 4
  %103 = mul nsw i32 2, %102
  %104 = add nsw i32 %103, 1
  %105 = sext i32 %104 to i64
  %106 = getelementptr inbounds i8, ptr %101, i64 %105
  store i8 %100, ptr %106, align 1
  %107 = load ptr, ptr %33, align 8
  %108 = load i32, ptr %25, align 4
  %109 = sext i32 %108 to i64
  %110 = getelementptr inbounds float, ptr %107, i64 %109
  %111 = load float, ptr %110, align 4
  %112 = fpext float %111 to double
  %113 = getelementptr inbounds %"class.LightGBM::GradientDiscretizer", ptr %32, i32 0, i32 17
  %114 = load double, ptr %113, align 8
  %115 = getelementptr inbounds %"class.LightGBM::GradientDiscretizer", ptr %32, i32 0, i32 7
  %116 = load i32, ptr %27, align 4
  %117 = sext i32 %116 to i64
  %118 = call noundef nonnull align 8 dereferenceable(8) ptr @_ZNSt6vectorIdSaIdEEixEm(ptr noundef nonnull align 8 dereferenceable(24) %115, i64 noundef %117) #5
  %119 = load double, ptr %118, align 8
  %120 = call double @llvm.fmuladd.f64(double %112, double %114, double %119)
  %121 = fptosi double %120 to i8
  %122 = load ptr, ptr %31, align 8
  %123 = load i32, ptr %25, align 4
  %124 = mul nsw i32 2, %123
  %125 = sext i32 %124 to i64
  %126 = getelementptr inbounds i8, ptr %122, i64 %125
  store i8 %121, ptr %126, align 1
  br label %127

127:                                              ; preds = %99
  br label %128

128:                                              ; preds = %127
  %129 = load i32, ptr %17, align 4
  %130 = add nsw i32 %129, 1
  store i32 %130, ptr %17, align 4
  br label %55

131:                                              ; preds = %55
  br label %132

132:                                              ; preds = %131
  %133 = load ptr, ptr %9, align 8
  %134 = load i32, ptr %133, align 4
  call void @__kmpc_for_static_fini(ptr @1, i32 %134)
  br label %135

135:                                              ; preds = %132, %8
  ret void
}