; Function Attrs: norecurse nounwind uwtable
define internal void @_ZN8LightGBM19GradientDiscretizer19DiscretizeGradientsEiPKfS2_.omp_outlined.3(ptr noalias nocapture noundef readonly %0, ptr noalias nocapture readnone %1, ptr nocapture noundef nonnull readonly align 4 dereferenceable(4) %2, ptr nocapture noundef nonnull readonly align 8 dereferenceable(8) %3, ptr nocapture noundef nonnull readonly align 4 dereferenceable(4) %4, ptr nocapture noundef nonnull readonly align 8 dereferenceable(8) %5, ptr nocapture noundef readonly %6, ptr nocapture noundef nonnull readonly align 8 dereferenceable(8) %7) #6 {
  %9 = alloca i32, align 4
  %10 = alloca i32, align 4
  %11 = alloca i32, align 4
  %12 = alloca i32, align 4
  %13 = load i32, ptr %2, align 4
  %14 = icmp sgt i32 %13, 0
  br i1 %14, label %15, label %63

15:                                               ; preds = %8
  %16 = add nsw i32 %13, -1
  store i32 0, ptr %9, align 4
  store i32 %16, ptr %10, align 4
  store i32 1, ptr %11, align 4
  store i32 0, ptr %12, align 4
  %17 = load i32, ptr %0, align 4
  call void @__kmpc_for_static_init_4(ptr nonnull @1, i32 %17, i32 34, ptr nonnull %12, ptr nonnull %9, ptr nonnull %10, ptr nonnull %11, i32 1, i32 1)
  %18 = load i32, ptr %10, align 4
  %19 = call i32 @llvm.smin.i32(i32 %18, i32 %16)
  store i32 %19, ptr %10, align 4
  %20 = load i32, ptr %9, align 4
  %.not27 = icmp sgt i32 %20, %19
  br i1 %.not27, label %._crit_edge, label %.lr.ph

.lr.ph:                                           ; preds = %15
  %21 = getelementptr inbounds i8, ptr %6, i64 5168
  %22 = getelementptr inbounds i8, ptr %6, i64 32
  %23 = getelementptr inbounds i8, ptr %6, i64 5176
  %24 = getelementptr inbounds i8, ptr %6, i64 56
  %25 = sext i32 %20 to i64
  br label %26

26:                                               ; preds = %.lr.ph, %26
  %indvars.iv = phi i64 [ %25, %.lr.ph ], [ %indvars.iv.next, %26 ]
  %27 = load ptr, ptr %3, align 8
  %28 = getelementptr inbounds float, ptr %27, i64 %indvars.iv
  %29 = load float, ptr %28, align 4
  %30 = fpext float %29 to double
  %31 = load i32, ptr %4, align 4
  %32 = trunc nsw i64 %indvars.iv to i32
  %33 = add nsw i32 %31, %32
  %34 = load i32, ptr %2, align 4
  %35 = srem i32 %33, %34
  %36 = fcmp ult float %29, 0.000000e+00
  %37 = load double, ptr %21, align 8
  %38 = sext i32 %35 to i64
  %39 = load ptr, ptr %22, align 8
  %40 = getelementptr inbounds double, ptr %39, i64 %38
  %41 = load double, ptr %40, align 8
  %42 = fneg double %41
  %.sink = select i1 %36, double %42, double %41
  %43 = call double @llvm.fmuladd.f64(double %30, double %37, double %.sink)
  %44 = fptosi double %43 to i8
  %45 = load ptr, ptr %5, align 8
  %46 = shl nsw i64 %indvars.iv, 1
  %47 = or disjoint i64 %46, 1
  %48 = getelementptr inbounds i8, ptr %45, i64 %47
  store i8 %44, ptr %48, align 1
  %49 = load ptr, ptr %7, align 8
  %50 = getelementptr inbounds float, ptr %49, i64 %indvars.iv
  %51 = load float, ptr %50, align 4
  %52 = fpext float %51 to double
  %53 = load double, ptr %23, align 8
  %54 = load ptr, ptr %24, align 8
  %55 = getelementptr inbounds double, ptr %54, i64 %38
  %56 = load double, ptr %55, align 8
  %57 = call double @llvm.fmuladd.f64(double %52, double %53, double %56)
  %58 = fptosi double %57 to i8
  %59 = load ptr, ptr %5, align 8
  %60 = getelementptr inbounds i8, ptr %59, i64 %46
  store i8 %58, ptr %60, align 1
  %indvars.iv.next = add nsw i64 %indvars.iv, 1
  %61 = load i32, ptr %10, align 4
  %62 = sext i32 %61 to i64
  %.not.not = icmp slt i64 %indvars.iv, %62
  br i1 %.not.not, label %26, label %._crit_edge

._crit_edge:                                      ; preds = %26, %15
  call void @__kmpc_for_static_fini(ptr nonnull @1, i32 %17)
  br label %63

63:                                               ; preds = %._crit_edge, %8
  ret void
}